target datalayout = "e-m:e-p270:32:32-p271:32:32-p272:64:64-i64:64-i128:128-f80:128-n8:16:32:64-S128"
target triple = "x86_64-pc-linux-gnu"

%"class.std::__cxx11::basic_string" = type { %"struct.std::__cxx11::basic_string<char>::_Alloc_hider", i64, %union.anon }
%"struct.std::__cxx11::basic_string<char>::_Alloc_hider" = type { ptr }
%union.anon = type { i64, [8 x i8] }
%"class.nix::Config" = type { %"class.nix::AbstractConfig", %"class.std::map.7" }
%"class.nix::AbstractConfig" = type { ptr, %"class.std::map" }
%"class.std::map" = type { %"class.std::_Rb_tree.3" }
%"class.std::_Rb_tree.3" = type { %"struct.std::_Rb_tree<std::__cxx11::basic_string<char>, std::pair<const std::__cxx11::basic_string<char>, std::__cxx11::basic_string<char>>, std::_Select1st<std::pair<const std::__cxx11::basic_string<char>, std::__cxx11::basic_string<char>>>, std::less<std::__cxx11::basic_string<char>>>::_Rb_tree_impl" }
%"struct.std::_Rb_tree<std::__cxx11::basic_string<char>, std::pair<const std::__cxx11::basic_string<char>, std::__cxx11::basic_string<char>>, std::_Select1st<std::pair<const std::__cxx11::basic_string<char>, std::__cxx11::basic_string<char>>>, std::less<std::__cxx11::basic_string<char>>>::_Rb_tree_impl" = type { %"struct.std::_Rb_tree_key_compare", %"struct.std::_Rb_tree_header" }
%"struct.std::_Rb_tree_key_compare" = type { %"struct.std::less" }
%"struct.std::less" = type { i8 }
%"struct.std::_Rb_tree_header" = type { %"struct.std::_Rb_tree_node_base", i64 }
%"struct.std::_Rb_tree_node_base" = type { i32, ptr, ptr, ptr }
%"class.std::map.7" = type { %"class.std::_Rb_tree.8" }
%"class.std::_Rb_tree.8" = type { %"struct.std::_Rb_tree<std::__cxx11::basic_string<char>, std::pair<const std::__cxx11::basic_string<char>, nix::Config::SettingData>, std::_Select1st<std::pair<const std::__cxx11::basic_string<char>, nix::Config::SettingData>>, std::less<std::__cxx11::basic_string<char>>>::_Rb_tree_impl" }
%"struct.std::_Rb_tree<std::__cxx11::basic_string<char>, std::pair<const std::__cxx11::basic_string<char>, nix::Config::SettingData>, std::_Select1st<std::pair<const std::__cxx11::basic_string<char>, nix::Config::SettingData>>, std::less<std::__cxx11::basic_string<char>>>::_Rb_tree_impl" = type { %"struct.std::_Rb_tree_key_compare", %"struct.std::_Rb_tree_header" }
%"class.nix::AbstractSetting" = type { ptr, %"class.std::__cxx11::basic_string", %"class.std::__cxx11::basic_string", %"class.std::set", i32, i8, [3 x i8], %"class.std::optional" }
%"class.std::set" = type { %"class.std::_Rb_tree" }
%"class.std::_Rb_tree" = type { %"struct.std::_Rb_tree<std::__cxx11::basic_string<char>, std::__cxx11::basic_string<char>, std::_Identity<std::__cxx11::basic_string<char>>, std::less<std::__cxx11::basic_string<char>>>::_Rb_tree_impl" }
%"struct.std::_Rb_tree<std::__cxx11::basic_string<char>, std::__cxx11::basic_string<char>, std::_Identity<std::__cxx11::basic_string<char>>, std::less<std::__cxx11::basic_string<char>>>::_Rb_tree_impl" = type { %"struct.std::_Rb_tree_key_compare", %"struct.std::_Rb_tree_header" }
%"class.std::optional" = type { %"struct.std::_Optional_base" }
%"struct.std::_Optional_base" = type { %"struct.std::_Optional_payload" }
%"struct.std::_Optional_payload" = type { %"struct.std::_Optional_payload_base.base", [3 x i8] }
%"struct.std::_Optional_payload_base.base" = type <{ %"union.std::_Optional_payload_base<nix::ExperimentalFeature>::_Storage", i8 }>
%"union.std::_Optional_payload_base<nix::ExperimentalFeature>::_Storage" = type { i32 }
%"class.nix::OptionalPathSetting" = type { %"class.nix::BaseSetting.base.33", [7 x i8] }
%"class.nix::BaseSetting.base.33" = type <{ %"class.nix::AbstractSetting", %"class.std::optional.23", %"class.std::optional.23", i8 }>
%"class.std::optional.23" = type { %"struct.std::_Optional_base.24" }
%"struct.std::_Optional_base.24" = type { %"struct.std::_Optional_payload.26" }
%"struct.std::_Optional_payload.26" = type { %"struct.std::_Optional_payload.base.30", [7 x i8] }
%"struct.std::_Optional_payload.base.30" = type { %"struct.std::_Optional_payload_base.base.29" }
%"struct.std::_Optional_payload_base.base.29" = type <{ %"union.std::_Optional_payload_base<std::__cxx11::basic_string<char>>::_Storage", i8 }>
%"union.std::_Optional_payload_base<std::__cxx11::basic_string<char>>::_Storage" = type { %"class.std::__cxx11::basic_string" }
%"class.nix::Setting.18" = type { %"class.nix::BaseSetting.base.20", [7 x i8] }
%"class.nix::BaseSetting.base.20" = type <{ %"class.nix::AbstractSetting", %"class.std::set", %"class.std::set", i8 }>
%"class.nix::Setting" = type { %"class.nix::BaseSetting.base", [5 x i8] }
%"class.nix::BaseSetting.base" = type <{ %"class.nix::AbstractSetting", i8, i8, i8 }>
%"class.nix::BaseSetting.base.13" = type <{ %"class.nix::AbstractSetting", %"class.std::__cxx11::basic_string", %"class.std::__cxx11::basic_string", i8 }>
%"struct.nix::LocalFSStoreConfig.base" = type { ptr, %"class.nix::OptionalPathSetting", %"class.nix::PathSetting", %"class.nix::PathSetting", %"class.nix::PathSetting" }
%"class.nix::PathSetting" = type { %"class.nix::BaseSetting.base.13", [7 x i8] }
%"struct.nix::StoreConfig" = type { %"struct.nix::StoreDirConfig", %"class.nix::Setting.14", %"class.nix::Setting", %"class.nix::Setting.14", %"class.nix::Setting", %"class.nix::Setting.18" }
%"struct.nix::StoreDirConfig" = type { %"class.nix::Config", %"class.nix::PathSetting", %"class.std::__cxx11::basic_string" }
%"class.nix::Setting.14" = type { %"class.nix::BaseSetting.base.16", [7 x i8] }
%"class.nix::BaseSetting.base.16" = type <{ %"class.nix::AbstractSetting", i32, i32, i8 }>
%"struct.nix::LocalStoreConfig" = type { ptr, %"class.nix::Setting", %"class.nix::Setting", %"struct.nix::LocalFSStoreConfig.base", %"struct.nix::StoreConfig" }

; Function Attrs: mustprogress nounwind uwtable
define linkonce_odr void @_ZN3nix11BaseSettingIbED2Ev(ptr noundef nonnull align 8 dereferenceable(139) %0) unnamed_addr #2 comdat align 2 {
  %2 = alloca ptr, align 8
  store ptr %0, ptr %2, align 8
  %3 = load ptr, ptr %2, align 8
  call void @_ZN3nix15AbstractSettingD2Ev(ptr noundef nonnull align 8 dereferenceable(136) %3) #1
  ret void
}

; Function Attrs: mustprogress nounwind uwtable
define linkonce_odr void @_ZN3nix7SettingIbED2Ev(ptr noundef nonnull align 8 dereferenceable(139) %0) unnamed_addr #2 comdat align 2 {
  %2 = alloca ptr, align 8
  store ptr %0, ptr %2, align 8
  %3 = load ptr, ptr %2, align 8
  call void @_ZN3nix11BaseSettingIbED2Ev(ptr noundef nonnull align 8 dereferenceable(139) %3) #1
  ret void
}

; Function Attrs: mustprogress nounwind uwtable
define linkonce_odr void @_ZN3nix16LocalStoreConfigD2Ev(ptr noundef nonnull align 8 dereferenceable(296) %0, ptr noundef %1) unnamed_addr #2 comdat align 2 {
  %3 = alloca ptr, align 8
  %4 = alloca ptr, align 8
  store ptr %0, ptr %3, align 8
  store ptr %1, ptr %4, align 8
  %5 = load ptr, ptr %3, align 8
  %6 = load ptr, ptr %4, align 8
  %7 = load ptr, ptr %6, align 8
  store ptr %7, ptr %5, align 8
  %8 = getelementptr inbounds ptr, ptr %6, i64 1
  %9 = load ptr, ptr %8, align 8
  %10 = load ptr, ptr %5, align 8
  %11 = getelementptr i8, ptr %10, i64 -24
  %12 = load i64, ptr %11, align 8
  %13 = getelementptr inbounds i8, ptr %5, i64 %12
  store ptr %9, ptr %13, align 8
  %14 = getelementptr inbounds ptr, ptr %6, i64 2
  %15 = load ptr, ptr %14, align 8
  %16 = load ptr, ptr %5, align 8
  %17 = getelementptr i8, ptr %16, i64 -32
  %18 = load i64, ptr %17, align 8
  %19 = getelementptr inbounds i8, ptr %5, i64 %18
  store ptr %15, ptr %19, align 8
  %20 = getelementptr inbounds %"struct.nix::LocalStoreConfig", ptr %5, i32 0, i32 2
  call void @_ZN3nix7SettingIbED2Ev(ptr noundef nonnull align 8 dereferenceable(139) %20) #1
  %21 = getelementptr inbounds %"struct.nix::LocalStoreConfig", ptr %5, i32 0, i32 1
  call void @_ZN3nix7SettingIbED2Ev(ptr noundef nonnull align 8 dereferenceable(139) %21) #1
  ret void
}

; Function Attrs: mustprogress nounwind uwtable
define linkonce_odr void @_ZN3nix7GcStoreD2Ev(ptr noundef nonnull align 8 dereferenceable(8) %0, ptr noundef %1) unnamed_addr #2 comdat align 2 {
  %3 = alloca ptr, align 8
  %4 = alloca ptr, align 8
  store ptr %0, ptr %3, align 8
  store ptr %1, ptr %4, align 8
  ret void
}

; Function Attrs: mustprogress nounwind uwtable
define linkonce_odr void @_ZN3nix8LogStoreD2Ev(ptr noundef nonnull align 8 dereferenceable(8) %0, ptr noundef %1) unnamed_addr #2 comdat align 2 {
  %3 = alloca ptr, align 8
  %4 = alloca ptr, align 8
  store ptr %0, ptr %3, align 8
  store ptr %1, ptr %4, align 8
  ret void
}

; Function Attrs: mustprogress nounwind uwtable
define linkonce_odr void @_ZN3nix12LocalFSStoreD2Ev(ptr noundef nonnull align 8 dereferenceable(8) %0, ptr noundef %1) unnamed_addr #2 comdat align 2 {
  %3 = alloca ptr, align 8
  %4 = alloca ptr, align 8
  store ptr %0, ptr %3, align 8
  store ptr %1, ptr %4, align 8
  ret void
}

; Function Attrs: mustprogress nounwind uwtable
define linkonce_odr void @_ZN3nix17IndirectRootStoreD2Ev(ptr noundef nonnull align 8 dereferenceable(8) %0, ptr noundef %1) unnamed_addr #2 comdat align 2 {
  %3 = alloca ptr, align 8
  %4 = alloca ptr, align 8
  store ptr %0, ptr %3, align 8
  store ptr %1, ptr %4, align 8
  ret void
}

; Function Attrs: mustprogress nounwind uwtable
define void @_ZN3nix10LocalStoreD1Ev(ptr noundef nonnull align 8 dereferenceable(504) %0) unnamed_addr #2 align 2 {
  %2 = alloca ptr, align 8
  store ptr %0, ptr %2, align 8
  %3 = load ptr, ptr %2, align 8
  call void @_ZN3nix10LocalStoreD2Ev(ptr noundef nonnull align 8 dereferenceable(504) %3, ptr noundef @_ZTTN3nix10LocalStoreE) #1
  call void @_ZN3nix17IndirectRootStoreD2Ev(ptr noundef nonnull align 8 dereferenceable(8) %3, ptr noundef getelementptr inbounds ([35 x ptr], ptr @_ZTTN3nix10LocalStoreE, i64 0, i64 14)) #1
  call void @_ZN3nix12LocalFSStoreD2Ev(ptr noundef nonnull align 8 dereferenceable(8) %3, ptr noundef getelementptr inbounds ([35 x ptr], ptr @_ZTTN3nix10LocalStoreE, i64 0, i64 21)) #1
  %4 = getelementptr inbounds i8, ptr %3, i64 3096
  call void @_ZN3nix8LogStoreD2Ev(ptr noundef nonnull align 8 dereferenceable(8) %4, ptr noundef getelementptr inbounds ([35 x ptr], ptr @_ZTTN3nix10LocalStoreE, i64 0, i64 32)) #1
  call void @_ZN3nix7GcStoreD2Ev(ptr noundef nonnull align 8 dereferenceable(8) %3, ptr noundef getelementptr inbounds ([35 x ptr], ptr @_ZTTN3nix10LocalStoreE, i64 0, i64 29)) #1
  %5 = getelementptr inbounds i8, ptr %3, i64 2832
  call void @_ZN3nix5StoreD2Ev(ptr noundef nonnull align 8 dereferenceable(264) %5, ptr noundef getelementptr inbounds ([35 x ptr], ptr @_ZTTN3nix10LocalStoreE, i64 0, i64 27)) #1
  %6 = getelementptr inbounds i8, ptr %3, i64 504
  call void @_ZN3nix16LocalStoreConfigD2Ev(ptr noundef nonnull align 8 dereferenceable(296) %6, ptr noundef getelementptr inbounds ([35 x ptr], ptr @_ZTTN3nix10LocalStoreE, i64 0, i64 9)) #1
  %7 = getelementptr inbounds i8, ptr %3, i64 800
  call void @_ZN3nix18LocalFSStoreConfigD2Ev(ptr noundef nonnull align 8 dereferenceable(856) %7, ptr noundef getelementptr inbounds ([35 x ptr], ptr @_ZTTN3nix10LocalStoreE, i64 0, i64 12)) #1
  %8 = getelementptr inbounds i8, ptr %3, i64 1656
  call void @_ZN3nix11StoreConfigD2Ev(ptr noundef nonnull align 8 dereferenceable(1176) %8) #1
  ret void
}

; Function Attrs: mustprogress nounwind uwtable
define void @_ZN3nix10LocalStoreD0Ev(ptr noundef nonnull align 8 dereferenceable(504) %0) unnamed_addr #2 align 2 {
  %2 = alloca ptr, align 8
  store ptr %0, ptr %2, align 8
  %3 = load ptr, ptr %2, align 8
  call void @_ZN3nix10LocalStoreD1Ev(ptr noundef nonnull align 8 dereferenceable(504) %3) #1
  call void @_ZdlPv(ptr noundef %3) #25
  ret void
}

; Function Attrs: nounwind uwtable
define void @_ZTv0_n72_N3nix10LocalStoreD0Ev(ptr noundef %0) unnamed_addr #9 align 2 {
  %2 = alloca ptr, align 8
  store ptr %0, ptr %2, align 8
  %3 = load ptr, ptr %2, align 8
  %4 = load ptr, ptr %3, align 8
  %5 = getelementptr inbounds i8, ptr %4, i64 -72
  %6 = load i64, ptr %5, align 8
  %7 = getelementptr inbounds i8, ptr %3, i64 %6
  tail call void @_ZN3nix10LocalStoreD0Ev(ptr noundef nonnull align 8 dereferenceable(504) %7) #1
  ret void
}