; Function Attrs: nounwind uwtable
define void @_ZTv0_n72_N3nix10LocalStoreD0Ev(ptr noundef %0) unnamed_addr #14 align 2 {
  %2 = load ptr, ptr %0, align 8
  %3 = getelementptr inbounds i8, ptr %2, i64 -72
  %4 = load i64, ptr %3, align 8
  %5 = getelementptr inbounds i8, ptr %0, i64 %4
  tail call void @_ZN3nix10LocalStoreD2Ev(ptr noundef nonnull align 8 dereferenceable(504) %5, ptr noundef nonnull @_ZTTN3nix10LocalStoreE) #33
  %6 = getelementptr inbounds i8, ptr %5, i64 2832
  tail call void @_ZN3nix5StoreD2Ev(ptr noundef nonnull align 8 dereferenceable(264) %6, ptr noundef nonnull getelementptr inbounds ([35 x ptr], ptr @_ZTTN3nix10LocalStoreE, i64 0, i64 27)) #33
  %7 = getelementptr inbounds i8, ptr %5, i64 504
  store ptr getelementptr inbounds ({ [11 x ptr], [6 x ptr], [23 x ptr] }, ptr @_ZTCN3nix10LocalStoreE504_NS_16LocalStoreConfigE, i64 0, i32 0, i64 7), ptr %7, align 8
  %8 = getelementptr inbounds i8, ptr %5, i64 800
  store ptr getelementptr inbounds ({ [11 x ptr], [6 x ptr], [23 x ptr] }, ptr @_ZTCN3nix10LocalStoreE504_NS_16LocalStoreConfigE, i64 0, i32 1, i64 4), ptr %8, align 8
  %9 = getelementptr inbounds i8, ptr %5, i64 1656
  store ptr getelementptr inbounds ({ [11 x ptr], [6 x ptr], [23 x ptr] }, ptr @_ZTCN3nix10LocalStoreE504_NS_16LocalStoreConfigE, i64 0, i32 2, i64 12), ptr %9, align 8
  %10 = getelementptr inbounds i8, ptr %5, i64 656
  tail call void @_ZN3nix15AbstractSettingD2Ev(ptr noundef nonnull align 8 dereferenceable(136) %10) #33
  %11 = getelementptr inbounds i8, ptr %5, i64 512
  tail call void @_ZN3nix15AbstractSettingD2Ev(ptr noundef nonnull align 8 dereferenceable(136) %11) #33
  tail call void @_ZN3nix18LocalFSStoreConfigD2Ev(ptr noundef nonnull align 8 dereferenceable(856) %8, ptr noundef nonnull getelementptr inbounds ([35 x ptr], ptr @_ZTTN3nix10LocalStoreE, i64 0, i64 12)) #33
  tail call void @_ZN3nix11StoreConfigD2Ev(ptr noundef nonnull align 8 dereferenceable(1176) %9) #33
  tail call void @_ZdlPv(ptr noundef nonnull %5) #36
  ret void
}